target datalayout = "e-m:e-p270:32:32-p271:32:32-p272:64:64-i64:64-i128:128-f80:128-n8:16:32:64-S128"
target triple = "x86_64-pc-linux-gnu"

%struct.KDF_PBKDF2 = type { ptr, ptr, i64, ptr, i64, i64, %struct.PROV_DIGEST, i32 }
%struct.PROV_DIGEST = type { ptr, ptr, ptr }
%struct.ossl_param_st = type { ptr, i32, ptr, i64, i64 }

@.str = private unnamed_addr constant [51 x i8] c"../openssl/providers/implementations/kdfs/pbkdf2.c\00", align 1
@.str.1 = private unnamed_addr constant [7 x i8] c"digest\00", align 1
@.str.2 = private unnamed_addr constant [5 x i8] c"SHA1\00", align 1
@ossl_kdf_pbkdf2_default_checks = external constant i32, align 4

; Function Attrs: nounwind uwtable
define internal void @kdf_pbkdf2_init(ptr noundef %0) #0 {
  %2 = alloca ptr, align 8
  %3 = alloca [2 x %struct.ossl_param_st], align 16
  %4 = alloca ptr, align 8
  %5 = alloca %struct.ossl_param_st, align 8
  store ptr %0, ptr %2, align 8, !tbaa !3
  call void @llvm.lifetime.start.p0(i64 80, ptr %3) #6
  call void @llvm.memset.p0.i64(ptr align 16 %3, i8 0, i64 80, i1 false)
  call void @llvm.lifetime.start.p0(i64 8, ptr %4) #6
  %6 = load ptr, ptr %2, align 8, !tbaa !3
  %7 = getelementptr inbounds nuw %struct.KDF_PBKDF2, ptr %6, i32 0, i32 0
  %8 = load ptr, ptr %7, align 8, !tbaa !7
  %9 = call ptr @ossl_prov_ctx_get0_libctx(ptr noundef %8)
  store ptr %9, ptr %4, align 8, !tbaa !26
  %10 = getelementptr inbounds [2 x %struct.ossl_param_st], ptr %3, i64 0, i64 0
  call void @llvm.lifetime.start.p0(i64 40, ptr %5) #6
  call void @OSSL_PARAM_construct_utf8_string(ptr dead_on_unwind writable sret(%struct.ossl_param_st) align 8 %5, ptr noundef @.str.1, ptr noundef @.str.2, i64 noundef 0)
  call void @llvm.memcpy.p0.p0.i64(ptr align 16 %10, ptr align 8 %5, i64 40, i1 false), !tbaa.struct !31
  call void @llvm.lifetime.end.p0(i64 40, ptr %5) #6
  %11 = load ptr, ptr %2, align 8, !tbaa !3
  %12 = getelementptr inbounds nuw %struct.KDF_PBKDF2, ptr %11, i32 0, i32 6
  %13 = getelementptr inbounds [2 x %struct.ossl_param_st], ptr %3, i64 0, i64 0
  %14 = load ptr, ptr %4, align 8, !tbaa !26
  %15 = call i32 @ossl_prov_digest_load_from_params(ptr noundef %12, ptr noundef %13, ptr noundef %14)
  %16 = icmp ne i32 %15, 0
  br i1 %16, label %20, label %17

17:                                               ; preds = %1
  %18 = load ptr, ptr %2, align 8, !tbaa !3
  %19 = getelementptr inbounds nuw %struct.KDF_PBKDF2, ptr %18, i32 0, i32 6
  call void @ossl_prov_digest_reset(ptr noundef %19)
  br label %20

20:                                               ; preds = %17, %1
  %21 = load ptr, ptr %2, align 8, !tbaa !3
  %22 = getelementptr inbounds nuw %struct.KDF_PBKDF2, ptr %21, i32 0, i32 5
  store i64 2048, ptr %22, align 8, !tbaa !19
  %23 = load i32, ptr @ossl_kdf_pbkdf2_default_checks, align 4, !tbaa !28
  %24 = load ptr, ptr %2, align 8, !tbaa !3
  %25 = getelementptr inbounds nuw %struct.KDF_PBKDF2, ptr %24, i32 0, i32 7
  store i32 %23, ptr %25, align 8, !tbaa !20
  call void @llvm.lifetime.end.p0(i64 8, ptr %4) #6
  call void @llvm.lifetime.end.p0(i64 80, ptr %3) #6
  ret void
}

; Function Attrs: nounwind uwtable
define internal void @kdf_pbkdf2_cleanup(ptr noundef %0) #0 {
  %2 = alloca ptr, align 8
  store ptr %0, ptr %2, align 8, !tbaa !3
  %3 = load ptr, ptr %2, align 8, !tbaa !3
  %4 = getelementptr inbounds nuw %struct.KDF_PBKDF2, ptr %3, i32 0, i32 6
  call void @ossl_prov_digest_reset(ptr noundef %4)
  %5 = load ptr, ptr %2, align 8, !tbaa !3
  %6 = getelementptr inbounds nuw %struct.KDF_PBKDF2, ptr %5, i32 0, i32 3
  %7 = load ptr, ptr %6, align 8, !tbaa !15
  call void @CRYPTO_free(ptr noundef %7, ptr noundef @.str, i32 noundef 99)
  %8 = load ptr, ptr %2, align 8, !tbaa !3
  %9 = getelementptr inbounds nuw %struct.KDF_PBKDF2, ptr %8, i32 0, i32 1
  %10 = load ptr, ptr %9, align 8, !tbaa !17
  %11 = load ptr, ptr %2, align 8, !tbaa !3
  %12 = getelementptr inbounds nuw %struct.KDF_PBKDF2, ptr %11, i32 0, i32 2
  %13 = load i64, ptr %12, align 8, !tbaa !18
  call void @CRYPTO_clear_free(ptr noundef %10, i64 noundef %13, ptr noundef @.str, i32 noundef 101)
  %14 = load ptr, ptr %2, align 8, !tbaa !3
  call void @llvm.memset.p0.i64(ptr align 8 %14, i8 0, i64 80, i1 false)
  ret void
}

; Function Attrs: nounwind uwtable
define internal void @kdf_pbkdf2_reset(ptr noundef %0) #0 {
  %2 = alloca ptr, align 8
  %3 = alloca ptr, align 8
  %4 = alloca ptr, align 8
  store ptr %0, ptr %2, align 8, !tbaa !3
  call void @llvm.lifetime.start.p0(i64 8, ptr %3) #6
  %5 = load ptr, ptr %2, align 8, !tbaa !3
  store ptr %5, ptr %3, align 8, !tbaa !3
  call void @llvm.lifetime.start.p0(i64 8, ptr %4) #6
  %6 = load ptr, ptr %3, align 8, !tbaa !3
  %7 = getelementptr inbounds nuw %struct.KDF_PBKDF2, ptr %6, i32 0, i32 0
  %8 = load ptr, ptr %7, align 8, !tbaa !7
  store ptr %8, ptr %4, align 8, !tbaa !3
  %9 = load ptr, ptr %3, align 8, !tbaa !3
  call void @kdf_pbkdf2_cleanup(ptr noundef %9)
  %10 = load ptr, ptr %4, align 8, !tbaa !3
  %11 = load ptr, ptr %3, align 8, !tbaa !3
  %12 = getelementptr inbounds nuw %struct.KDF_PBKDF2, ptr %11, i32 0, i32 0
  store ptr %10, ptr %12, align 8, !tbaa !7
  %13 = load ptr, ptr %3, align 8, !tbaa !3
  call void @kdf_pbkdf2_init(ptr noundef %13)
  call void @llvm.lifetime.end.p0(i64 8, ptr %4) #6
  call void @llvm.lifetime.end.p0(i64 8, ptr %3) #6
  ret void
}