; Function Attrs: nounwind uwtable
define internal void @kdf_pbkdf2_reset(ptr noundef %0) #0 {
  %2 = alloca [2 x %struct.ossl_param_st], align 16
  %3 = load ptr, ptr %0, align 8, !tbaa !3
  %4 = getelementptr inbounds nuw i8, ptr %0, i64 48
  tail call void @ossl_prov_digest_reset(ptr noundef nonnull %4) #7
  %5 = getelementptr inbounds nuw i8, ptr %0, i64 24
  %6 = load ptr, ptr %5, align 8, !tbaa !17
  tail call void @CRYPTO_free(ptr noundef %6, ptr noundef nonnull @.str, i32 noundef 99) #7
  %7 = getelementptr inbounds nuw i8, ptr %0, i64 8
  %8 = load ptr, ptr %7, align 8, !tbaa !19
  %9 = getelementptr inbounds nuw i8, ptr %0, i64 16
  %10 = load i64, ptr %9, align 8, !tbaa !20
  tail call void @CRYPTO_clear_free(ptr noundef %8, i64 noundef %10, ptr noundef nonnull @.str, i32 noundef 101) #7
  %11 = getelementptr inbounds nuw i8, ptr %0, i64 8
  tail call void @llvm.memset.p0.i64(ptr noundef nonnull align 8 dereferenceable(80) %11, i8 0, i64 72, i1 false)
  store ptr %3, ptr %0, align 8, !tbaa !3
  call void @llvm.lifetime.start.p0(i64 80, ptr nonnull %2) #7
  %12 = tail call ptr @ossl_prov_ctx_get0_libctx(ptr noundef %3) #7
  call void @OSSL_PARAM_construct_utf8_string(ptr dead_on_unwind nonnull writable sret(%struct.ossl_param_st) align 8 %2, ptr noundef nonnull @.str.1, ptr noundef nonnull @.str.2, i64 noundef 0) #7
  %13 = getelementptr inbounds nuw i8, ptr %2, i64 40
  call void @llvm.memset.p0.i64(ptr noundef nonnull align 8 dereferenceable(40) %13, i8 0, i64 40, i1 false)
  %14 = call i32 @ossl_prov_digest_load_from_params(ptr noundef nonnull %4, ptr noundef nonnull %2, ptr noundef %12) #7
  %.not.i = icmp eq i32 %14, 0
  br i1 %.not.i, label %15, label %kdf_pbkdf2_init.exit

15:                                               ; preds = %1
  call void @ossl_prov_digest_reset(ptr noundef nonnull %4) #7
  br label %kdf_pbkdf2_init.exit

kdf_pbkdf2_init.exit:                             ; preds = %1, %15
  %16 = getelementptr inbounds nuw i8, ptr %0, i64 40
  store i64 2048, ptr %16, align 8, !tbaa !14
  %17 = load i32, ptr @ossl_kdf_pbkdf2_default_checks, align 4, !tbaa !15
  %18 = getelementptr inbounds nuw i8, ptr %0, i64 72
  store i32 %17, ptr %18, align 8, !tbaa !16
  call void @llvm.lifetime.end.p0(i64 80, ptr nonnull %2) #7
  ret void
}